target datalayout = "e-m:e-p270:32:32-p271:32:32-p272:64:64-i64:64-i128:128-f80:128-n8:16:32:64-S128"
target triple = "x86_64-pc-linux-gnu"

%struct.SurfaceDataRasInfo = type { %struct.SurfaceDataBounds, ptr, i32, i32, i32, i32, ptr, ptr, ptr, ptr, ptr, ptr, i32, %union.anon.0 }
%struct.SurfaceDataBounds = type { i32, i32, i32, i32 }
%union.anon.0 = type { ptr, [56 x i8] }
%struct.ImageRef = type { ptr, ptr, i32, i32, i32, i32, i32, i32 }

; Function Attrs: nounwind uwtable
define hidden void @ByteBinary4BitDrawGlyphList(ptr noundef %0, ptr noundef %1, i32 noundef %2, i32 noundef %3, i32 noundef %4, i32 noundef %5, i32 noundef %6, i32 noundef %7, i32 noundef %8, ptr noundef %9, ptr noundef %10) #0 {
  %12 = alloca ptr, align 8
  %13 = alloca ptr, align 8
  %14 = alloca i32, align 4
  %15 = alloca i32, align 4
  %16 = alloca i32, align 4
  %17 = alloca i32, align 4
  %18 = alloca i32, align 4
  %19 = alloca i32, align 4
  %20 = alloca i32, align 4
  %21 = alloca ptr, align 8
  %22 = alloca ptr, align 8
  %23 = alloca i32, align 4
  %24 = alloca i32, align 4
  %25 = alloca ptr, align 8
  %26 = alloca ptr, align 8
  %27 = alloca i32, align 4
  %28 = alloca i32, align 4
  %29 = alloca i32, align 4
  %30 = alloca i32, align 4
  %31 = alloca i32, align 4
  %32 = alloca i32, align 4
  %33 = alloca i32, align 4
  %34 = alloca i32, align 4
  %35 = alloca i32, align 4
  %36 = alloca i32, align 4
  %37 = alloca i32, align 4
  %38 = alloca i32, align 4
  store ptr %0, ptr %12, align 8
  store ptr %1, ptr %13, align 8
  store i32 %2, ptr %14, align 4
  store i32 %3, ptr %15, align 4
  store i32 %4, ptr %16, align 4
  store i32 %5, ptr %17, align 4
  store i32 %6, ptr %18, align 4
  store i32 %7, ptr %19, align 4
  store i32 %8, ptr %20, align 4
  store ptr %9, ptr %21, align 8
  store ptr %10, ptr %22, align 8
  %39 = load ptr, ptr %12, align 8
  %40 = getelementptr inbounds %struct.SurfaceDataRasInfo, ptr %39, i32 0, i32 4
  %41 = load i32, ptr %40, align 8
  store i32 %41, ptr %24, align 4
  store i32 0, ptr %23, align 4
  br label %42

42:                                               ; preds = %250, %11
  %43 = load i32, ptr %23, align 4
  %44 = load i32, ptr %14, align 4
  %45 = icmp slt i32 %43, %44
  br i1 %45, label %46, label %253

46:                                               ; preds = %42
  %47 = load ptr, ptr %13, align 8
  %48 = load i32, ptr %23, align 4
  %49 = sext i32 %48 to i64
  %50 = getelementptr inbounds %struct.ImageRef, ptr %47, i64 %49
  %51 = getelementptr inbounds %struct.ImageRef, ptr %50, i32 0, i32 1
  %52 = load ptr, ptr %51, align 8
  store ptr %52, ptr %26, align 8
  %53 = load ptr, ptr %26, align 8
  %54 = icmp ne ptr %53, null
  br i1 %54, label %56, label %55

55:                                               ; preds = %46
  br label %250

56:                                               ; preds = %46
  %57 = load ptr, ptr %13, align 8
  %58 = load i32, ptr %23, align 4
  %59 = sext i32 %58 to i64
  %60 = getelementptr inbounds %struct.ImageRef, ptr %57, i64 %59
  %61 = getelementptr inbounds %struct.ImageRef, ptr %60, i32 0, i32 2
  %62 = load i32, ptr %61, align 8
  store i32 %62, ptr %27, align 4
  %63 = load ptr, ptr %13, align 8
  %64 = load i32, ptr %23, align 4
  %65 = sext i32 %64 to i64
  %66 = getelementptr inbounds %struct.ImageRef, ptr %63, i64 %65
  %67 = getelementptr inbounds %struct.ImageRef, ptr %66, i32 0, i32 6
  %68 = load i32, ptr %67, align 8
  store i32 %68, ptr %28, align 4
  %69 = load ptr, ptr %13, align 8
  %70 = load i32, ptr %23, align 4
  %71 = sext i32 %70 to i64
  %72 = getelementptr inbounds %struct.ImageRef, ptr %69, i64 %71
  %73 = getelementptr inbounds %struct.ImageRef, ptr %72, i32 0, i32 7
  %74 = load i32, ptr %73, align 4
  store i32 %74, ptr %29, align 4
  %75 = load ptr, ptr %13, align 8
  %76 = load i32, ptr %23, align 4
  %77 = sext i32 %76 to i64
  %78 = getelementptr inbounds %struct.ImageRef, ptr %75, i64 %77
  %79 = getelementptr inbounds %struct.ImageRef, ptr %78, i32 0, i32 4
  %80 = load i32, ptr %79, align 8
  store i32 %80, ptr %30, align 4
  %81 = load ptr, ptr %13, align 8
  %82 = load i32, ptr %23, align 4
  %83 = sext i32 %82 to i64
  %84 = getelementptr inbounds %struct.ImageRef, ptr %81, i64 %83
  %85 = getelementptr inbounds %struct.ImageRef, ptr %84, i32 0, i32 5
  %86 = load i32, ptr %85, align 4
  store i32 %86, ptr %31, align 4
  %87 = load i32, ptr %28, align 4
  %88 = load i32, ptr %30, align 4
  %89 = add nsw i32 %87, %88
  store i32 %89, ptr %32, align 4
  %90 = load i32, ptr %29, align 4
  %91 = load i32, ptr %31, align 4
  %92 = add nsw i32 %90, %91
  store i32 %92, ptr %33, align 4
  %93 = load i32, ptr %28, align 4
  %94 = load i32, ptr %17, align 4
  %95 = icmp slt i32 %93, %94
  br i1 %95, label %96, label %105

96:                                               ; preds = %56
  %97 = load i32, ptr %17, align 4
  %98 = load i32, ptr %28, align 4
  %99 = sub nsw i32 %97, %98
  %100 = mul nsw i32 %99, 1
  %101 = load ptr, ptr %26, align 8
  %102 = sext i32 %100 to i64
  %103 = getelementptr inbounds i8, ptr %101, i64 %102
  store ptr %103, ptr %26, align 8
  %104 = load i32, ptr %17, align 4
  store i32 %104, ptr %28, align 4
  br label %105

105:                                              ; preds = %96, %56
  %106 = load i32, ptr %29, align 4
  %107 = load i32, ptr %18, align 4
  %108 = icmp slt i32 %106, %107
  br i1 %108, label %109, label %119

109:                                              ; preds = %105
  %110 = load i32, ptr %18, align 4
  %111 = load i32, ptr %29, align 4
  %112 = sub nsw i32 %110, %111
  %113 = load i32, ptr %27, align 4
  %114 = mul nsw i32 %112, %113
  %115 = load ptr, ptr %26, align 8
  %116 = sext i32 %114 to i64
  %117 = getelementptr inbounds i8, ptr %115, i64 %116
  store ptr %117, ptr %26, align 8
  %118 = load i32, ptr %18, align 4
  store i32 %118, ptr %29, align 4
  br label %119

119:                                              ; preds = %109, %105
  %120 = load i32, ptr %32, align 4
  %121 = load i32, ptr %19, align 4
  %122 = icmp sgt i32 %120, %121
  br i1 %122, label %123, label %125

123:                                              ; preds = %119
  %124 = load i32, ptr %19, align 4
  store i32 %124, ptr %32, align 4
  br label %125

125:                                              ; preds = %123, %119
  %126 = load i32, ptr %33, align 4
  %127 = load i32, ptr %20, align 4
  %128 = icmp sgt i32 %126, %127
  br i1 %128, label %129, label %131

129:                                              ; preds = %125
  %130 = load i32, ptr %20, align 4
  store i32 %130, ptr %33, align 4
  br label %131

131:                                              ; preds = %129, %125
  %132 = load i32, ptr %32, align 4
  %133 = load i32, ptr %28, align 4
  %134 = icmp sle i32 %132, %133
  br i1 %134, label %139, label %135

135:                                              ; preds = %131
  %136 = load i32, ptr %33, align 4
  %137 = load i32, ptr %29, align 4
  %138 = icmp sle i32 %136, %137
  br i1 %138, label %139, label %140

139:                                              ; preds = %135, %131
  br label %250

140:                                              ; preds = %135
  %141 = load i32, ptr %32, align 4
  %142 = load i32, ptr %28, align 4
  %143 = sub nsw i32 %141, %142
  store i32 %143, ptr %30, align 4
  %144 = load i32, ptr %33, align 4
  %145 = load i32, ptr %29, align 4
  %146 = sub nsw i32 %144, %145
  store i32 %146, ptr %31, align 4
  %147 = load ptr, ptr %12, align 8
  %148 = getelementptr inbounds %struct.SurfaceDataRasInfo, ptr %147, i32 0, i32 1
  %149 = load ptr, ptr %148, align 8
  %150 = ptrtoint ptr %149 to i64
  %151 = load i32, ptr %29, align 4
  %152 = sext i32 %151 to i64
  %153 = load i32, ptr %24, align 4
  %154 = sext i32 %153 to i64
  %155 = mul nsw i64 %152, %154
  %156 = load i32, ptr %28, align 4
  %157 = sext i32 %156 to i64
  %158 = mul nsw i64 %157, 0
  %159 = add nsw i64 %155, %158
  %160 = add nsw i64 %150, %159
  %161 = inttoptr i64 %160 to ptr
  store ptr %161, ptr %25, align 8
  br label %162

162:                                              ; preds = %245, %140
  %163 = load i32, ptr %28, align 4
  %164 = load ptr, ptr %12, align 8
  %165 = getelementptr inbounds %struct.SurfaceDataRasInfo, ptr %164, i32 0, i32 2
  %166 = load i32, ptr %165, align 8
  %167 = sdiv i32 %166, 4
  %168 = add nsw i32 %163, %167
  store i32 %168, ptr %34, align 4
  %169 = load i32, ptr %34, align 4
  %170 = sdiv i32 %169, 2
  store i32 %170, ptr %35, align 4
  %171 = load i32, ptr %34, align 4
  %172 = srem i32 %171, 2
  %173 = mul nsw i32 %172, 4
  %174 = sub nsw i32 4, %173
  store i32 %174, ptr %36, align 4
  %175 = load ptr, ptr %25, align 8
  %176 = load i32, ptr %35, align 4
  %177 = sext i32 %176 to i64
  %178 = getelementptr inbounds i8, ptr %175, i64 %177
  %179 = load i8, ptr %178, align 1
  %180 = zext i8 %179 to i32
  store i32 %180, ptr %37, align 4
  store i32 0, ptr %38, align 4
  br label %181

181:                                              ; preds = %223, %162
  br label %182

182:                                              ; preds = %181
  %183 = load i32, ptr %36, align 4
  %184 = icmp slt i32 %183, 0
  br i1 %184, label %185, label %199

185:                                              ; preds = %182
  %186 = load i32, ptr %37, align 4
  %187 = trunc i32 %186 to i8
  %188 = load ptr, ptr %25, align 8
  %189 = load i32, ptr %35, align 4
  %190 = sext i32 %189 to i64
  %191 = getelementptr inbounds i8, ptr %188, i64 %190
  store i8 %187, ptr %191, align 1
  %192 = load ptr, ptr %25, align 8
  %193 = load i32, ptr %35, align 4
  %194 = add nsw i32 %193, 1
  store i32 %194, ptr %35, align 4
  %195 = sext i32 %194 to i64
  %196 = getelementptr inbounds i8, ptr %192, i64 %195
  %197 = load i8, ptr %196, align 1
  %198 = zext i8 %197 to i32
  store i32 %198, ptr %37, align 4
  store i32 4, ptr %36, align 4
  br label %199

199:                                              ; preds = %185, %182
  br label %200

200:                                              ; preds = %199
  %201 = load ptr, ptr %26, align 8
  %202 = load i32, ptr %38, align 4
  %203 = sext i32 %202 to i64
  %204 = getelementptr inbounds i8, ptr %201, i64 %203
  %205 = load i8, ptr %204, align 1
  %206 = icmp ne i8 %205, 0
  br i1 %206, label %207, label %220

207:                                              ; preds = %200
  br label %208

208:                                              ; preds = %207
  %209 = load i32, ptr %36, align 4
  %210 = shl i32 15, %209
  %211 = xor i32 %210, -1
  %212 = load i32, ptr %37, align 4
  %213 = and i32 %212, %211
  store i32 %213, ptr %37, align 4
  %214 = load i32, ptr %15, align 4
  %215 = load i32, ptr %36, align 4
  %216 = shl i32 %214, %215
  %217 = load i32, ptr %37, align 4
  %218 = or i32 %217, %216
  store i32 %218, ptr %37, align 4
  br label %219

219:                                              ; preds = %208
  br label %220

220:                                              ; preds = %219, %200
  %221 = load i32, ptr %36, align 4
  %222 = sub nsw i32 %221, 4
  store i32 %222, ptr %36, align 4
  br label %223

223:                                              ; preds = %220
  %224 = load i32, ptr %38, align 4
  %225 = add nsw i32 %224, 1
  store i32 %225, ptr %38, align 4
  %226 = load i32, ptr %30, align 4
  %227 = icmp slt i32 %225, %226
  br i1 %227, label %181, label %228, !llvm.loop !21

228:                                              ; preds = %223
  %229 = load i32, ptr %37, align 4
  %230 = trunc i32 %229 to i8
  %231 = load ptr, ptr %25, align 8
  %232 = load i32, ptr %35, align 4
  %233 = sext i32 %232 to i64
  %234 = getelementptr inbounds i8, ptr %231, i64 %233
  store i8 %230, ptr %234, align 1
  %235 = load ptr, ptr %25, align 8
  %236 = ptrtoint ptr %235 to i64
  %237 = load i32, ptr %24, align 4
  %238 = sext i32 %237 to i64
  %239 = add nsw i64 %236, %238
  %240 = inttoptr i64 %239 to ptr
  store ptr %240, ptr %25, align 8
  %241 = load i32, ptr %27, align 4
  %242 = load ptr, ptr %26, align 8
  %243 = sext i32 %241 to i64
  %244 = getelementptr inbounds i8, ptr %242, i64 %243
  store ptr %244, ptr %26, align 8
  br label %245

245:                                              ; preds = %228
  %246 = load i32, ptr %31, align 4
  %247 = add nsw i32 %246, -1
  store i32 %247, ptr %31, align 4
  %248 = icmp sgt i32 %247, 0
  br i1 %248, label %162, label %249, !llvm.loop !22

249:                                              ; preds = %245
  br label %250

250:                                              ; preds = %249, %139, %55
  %251 = load i32, ptr %23, align 4
  %252 = add nsw i32 %251, 1
  store i32 %252, ptr %23, align 4
  br label %42, !llvm.loop !23

253:                                              ; preds = %42
  ret void
}