; Function Attrs: nofree norecurse nosync nounwind memory(readwrite, inaccessiblemem: none) uwtable
define hidden void @ByteBinary4BitDrawGlyphList(ptr nocapture noundef readonly %0, ptr nocapture noundef readonly %1, i32 noundef %2, i32 noundef %3, i32 %4, i32 noundef %5, i32 noundef %6, i32 noundef %7, i32 noundef %8, ptr nocapture readnone %9, ptr nocapture readnone %10) #0 {
  %12 = icmp sgt i32 %2, 0
  br i1 %12, label %.lr.ph, label %._crit_edge

.lr.ph:                                           ; preds = %11
  %13 = getelementptr inbounds i8, ptr %0, i64 32
  %14 = load i32, ptr %13, align 8
  %15 = getelementptr inbounds i8, ptr %0, i64 16
  %16 = sext i32 %14 to i64
  %17 = getelementptr inbounds i8, ptr %0, i64 24
  %wide.trip.count118 = zext nneg i32 %2 to i64
  br label %18

18:                                               ; preds = %.lr.ph, %.loopexit
  %indvars.iv115 = phi i64 [ 0, %.lr.ph ], [ %indvars.iv.next116, %.loopexit ]
  %19 = getelementptr inbounds %struct.ImageRef, ptr %1, i64 %indvars.iv115
  %20 = getelementptr inbounds i8, ptr %19, i64 8
  %21 = load ptr, ptr %20, align 8
  %.not = icmp eq ptr %21, null
  br i1 %.not, label %.loopexit, label %22

22:                                               ; preds = %18
  %23 = getelementptr inbounds i8, ptr %19, i64 32
  %24 = load i32, ptr %23, align 8
  %25 = getelementptr inbounds i8, ptr %19, i64 36
  %26 = load i32, ptr %25, align 4
  %27 = getelementptr inbounds i8, ptr %19, i64 24
  %28 = load i32, ptr %27, align 8
  %29 = getelementptr inbounds i8, ptr %19, i64 28
  %30 = load i32, ptr %29, align 4
  %31 = add nsw i32 %28, %24
  %32 = add nsw i32 %30, %26
  %.091 = tail call i32 @llvm.smax.i32(i32 %24, i32 %5)
  %.090 = tail call i32 @llvm.smax.i32(i32 %26, i32 %6)
  %.088 = tail call i32 @llvm.smin.i32(i32 %31, i32 %7)
  %.087 = tail call i32 @llvm.smin.i32(i32 %32, i32 %8)
  %.not109 = icmp sgt i32 %.088, %.091
  %.not110 = icmp sgt i32 %.087, %.090
  %or.cond = select i1 %.not109, i1 %.not110, i1 false
  br i1 %or.cond, label %33, label %.loopexit

33:                                               ; preds = %22
  %34 = getelementptr inbounds i8, ptr %19, i64 16
  %35 = load i32, ptr %34, align 8
  %36 = icmp slt i32 %26, %6
  %37 = icmp slt i32 %24, %5
  %38 = sub nsw i32 %5, %24
  %narrow = select i1 %37, i32 %38, i32 0
  %.093.idx = sext i32 %narrow to i64
  %.093 = getelementptr inbounds i8, ptr %21, i64 %.093.idx
  %39 = sub nsw i32 %6, %26
  %40 = mul nsw i32 %39, %35
  %narrow112 = select i1 %36, i32 %40, i32 0
  %.194.idx = sext i32 %narrow112 to i64
  %.194 = getelementptr inbounds i8, ptr %.093, i64 %.194.idx
  %41 = sub i32 %.088, %.091
  %42 = sub nsw i32 %.087, %.090
  %43 = load ptr, ptr %15, align 8
  %44 = ptrtoint ptr %43 to i64
  %45 = sext i32 %.090 to i64
  %46 = mul nsw i64 %45, %16
  %47 = add nsw i64 %46, %44
  %48 = sext i32 %35 to i64
  %smax = tail call i32 @llvm.smax.i32(i32 %41, i32 1)
  %wide.trip.count = zext nneg i32 %smax to i64
  br label %49

49:                                               ; preds = %83, %33
  %.295 = phi ptr [ %.194, %33 ], [ %88, %83 ]
  %.092.in = phi i64 [ %47, %33 ], [ %87, %83 ]
  %.089 = phi i32 [ %42, %33 ], [ %89, %83 ]
  %.092 = inttoptr i64 %.092.in to ptr
  %50 = load i32, ptr %17, align 8
  %51 = sdiv i32 %50, 4
  %52 = add nsw i32 %51, %.091
  %53 = sdiv i32 %52, 2
  %54 = srem i32 %52, 2
  %55 = shl nsw i32 %54, 2
  %56 = sub nsw i32 4, %55
  %57 = sext i32 %53 to i64
  %58 = getelementptr inbounds i8, ptr %.092, i64 %57
  %59 = load i8, ptr %58, align 1
  %60 = zext i8 %59 to i32
  br label %61

61:                                               ; preds = %81, %49
  %indvars.iv = phi i64 [ %indvars.iv.next, %81 ], [ 0, %49 ]
  %.084 = phi i32 [ %.185, %81 ], [ %53, %49 ]
  %.082 = phi i32 [ %82, %81 ], [ %56, %49 ]
  %.081 = phi i32 [ %.2, %81 ], [ %60, %49 ]
  %62 = icmp slt i32 %.082, 0
  br i1 %62, label %63, label %72

63:                                               ; preds = %61
  %64 = trunc i32 %.081 to i8
  %65 = sext i32 %.084 to i64
  %66 = getelementptr inbounds i8, ptr %.092, i64 %65
  store i8 %64, ptr %66, align 1
  %67 = add nsw i32 %.084, 1
  %68 = sext i32 %67 to i64
  %69 = getelementptr inbounds i8, ptr %.092, i64 %68
  %70 = load i8, ptr %69, align 1
  %71 = zext i8 %70 to i32
  br label %72

72:                                               ; preds = %61, %63
  %.185 = phi i32 [ %67, %63 ], [ %.084, %61 ]
  %.183 = phi i32 [ 4, %63 ], [ %.082, %61 ]
  %.1 = phi i32 [ %71, %63 ], [ %.081, %61 ]
  %73 = getelementptr inbounds i8, ptr %.295, i64 %indvars.iv
  %74 = load i8, ptr %73, align 1
  %.not111 = icmp eq i8 %74, 0
  br i1 %.not111, label %81, label %75

75:                                               ; preds = %72
  %76 = shl nuw nsw i32 15, %.183
  %77 = xor i32 %76, -1
  %78 = and i32 %.1, %77
  %79 = shl i32 %3, %.183
  %80 = or i32 %78, %79
  br label %81

81:                                               ; preds = %75, %72
  %.2 = phi i32 [ %80, %75 ], [ %.1, %72 ]
  %82 = add nsw i32 %.183, -4
  %indvars.iv.next = add nuw nsw i64 %indvars.iv, 1
  %exitcond.not = icmp eq i64 %indvars.iv.next, %wide.trip.count
  br i1 %exitcond.not, label %83, label %61, !llvm.loop !21

83:                                               ; preds = %81
  %84 = trunc i32 %.2 to i8
  %85 = sext i32 %.185 to i64
  %86 = getelementptr inbounds i8, ptr %.092, i64 %85
  store i8 %84, ptr %86, align 1
  %87 = add nsw i64 %.092.in, %16
  %88 = getelementptr inbounds i8, ptr %.295, i64 %48
  %89 = add nsw i32 %.089, -1
  %90 = icmp sgt i32 %.089, 1
  br i1 %90, label %49, label %.loopexit, !llvm.loop !22

.loopexit:                                        ; preds = %83, %22, %18
  %indvars.iv.next116 = add nuw nsw i64 %indvars.iv115, 1
  %exitcond119.not = icmp eq i64 %indvars.iv.next116, %wide.trip.count118
  br i1 %exitcond119.not, label %._crit_edge, label %18, !llvm.loop !23

._crit_edge:                                      ; preds = %.loopexit, %11
  ret void
}